; Function Attrs: nounwind uwtable
define dso_local i32 @Curl_http_setup_conn(ptr noundef %0, ptr noundef %1) #0 {
  tail call void @Curl_conncontrol(ptr noundef %1, i32 noundef 0) #11
  %3 = getelementptr inbounds nuw i8, ptr %0, i64 4872
  %4 = load i8, ptr %3, align 8, !tbaa !4
  %5 = icmp eq i8 %4, 31
  br i1 %5, label %6, label %8

6:                                                ; preds = %2
  %7 = tail call i32 @Curl_conn_may_http3(ptr noundef nonnull %0, ptr noundef %1) #11
  %.not.not = icmp eq i32 %7, 0
  br i1 %.not.not, label %8, label %9

8:                                                ; preds = %6, %2
  br label %9

9:                                                ; preds = %6, %8
  %.1 = phi i32 [ %7, %6 ], [ 0, %8 ]
  ret i32 %.1
}